target datalayout = "e-m:e-p270:32:32-p271:32:32-p272:64:64-i64:64-i128:128-f80:128-n8:16:32:64-S128"
target triple = "x86_64-pc-linux-gnu"

%struct.AVTXContext = type { i32, i32, ptr, ptr, ptr, ptr, [4 x ptr], i32, [4 x ptr], ptr, i32, i64, i32, float, double, ptr }

; Function Attrs: nounwind uwtable
define internal void @ff_tx_dctII_float_c(ptr noundef %0, ptr noundef %1, ptr noundef %2, i64 noundef %3) #4 {
  %5 = alloca ptr, align 8
  %6 = alloca ptr, align 8
  %7 = alloca ptr, align 8
  %8 = alloca i64, align 8
  %9 = alloca ptr, align 8
  %10 = alloca ptr, align 8
  %11 = alloca i32, align 4
  %12 = alloca i32, align 4
  %13 = alloca ptr, align 8
  %14 = alloca float, align 4
  %15 = alloca float, align 4
  %16 = alloca float, align 4
  %17 = alloca i32, align 4
  %18 = alloca float, align 4
  %19 = alloca float, align 4
  %20 = alloca float, align 4
  %21 = alloca i32, align 4
  %22 = alloca float, align 4
  store ptr %0, ptr %5, align 8, !tbaa !17
  store ptr %1, ptr %6, align 8, !tbaa !8
  store ptr %2, ptr %7, align 8, !tbaa !8
  store i64 %3, ptr %8, align 8, !tbaa !30
  call void @llvm.lifetime.start.p0(i64 8, ptr %9) #10
  %23 = load ptr, ptr %6, align 8, !tbaa !8
  store ptr %23, ptr %9, align 8, !tbaa !39
  call void @llvm.lifetime.start.p0(i64 8, ptr %10) #10
  %24 = load ptr, ptr %7, align 8, !tbaa !8
  store ptr %24, ptr %10, align 8, !tbaa !39
  call void @llvm.lifetime.start.p0(i64 4, ptr %11) #10
  %25 = load ptr, ptr %5, align 8, !tbaa !17
  %26 = getelementptr inbounds nuw %struct.AVTXContext, ptr %25, i32 0, i32 0
  %27 = load i32, ptr %26, align 8, !tbaa !21
  store i32 %27, ptr %11, align 4, !tbaa !4
  call void @llvm.lifetime.start.p0(i64 4, ptr %12) #10
  %28 = load i32, ptr %11, align 4, !tbaa !4
  %29 = ashr i32 %28, 1
  store i32 %29, ptr %12, align 4, !tbaa !4
  call void @llvm.lifetime.start.p0(i64 8, ptr %13) #10
  %30 = load ptr, ptr %5, align 8, !tbaa !17
  %31 = getelementptr inbounds nuw %struct.AVTXContext, ptr %30, i32 0, i32 3
  %32 = load ptr, ptr %31, align 8, !tbaa !31
  store ptr %32, ptr %13, align 8, !tbaa !39
  call void @llvm.lifetime.start.p0(i64 4, ptr %14) #10
  call void @llvm.lifetime.start.p0(i64 4, ptr %15) #10
  call void @llvm.lifetime.start.p0(i64 4, ptr %16) #10
  call void @llvm.lifetime.start.p0(i64 4, ptr %17) #10
  store i32 0, ptr %17, align 4, !tbaa !4
  br label %33

33:                                               ; preds = %87, %4
  %34 = load i32, ptr %17, align 4, !tbaa !4
  %35 = load i32, ptr %12, align 4, !tbaa !4
  %36 = icmp slt i32 %34, %35
  br i1 %36, label %38, label %37

37:                                               ; preds = %33
  call void @llvm.lifetime.end.p0(i64 4, ptr %17) #10
  br label %90

38:                                               ; preds = %33
  call void @llvm.lifetime.start.p0(i64 4, ptr %18) #10
  %39 = load ptr, ptr %10, align 8, !tbaa !39
  %40 = load i32, ptr %17, align 4, !tbaa !4
  %41 = sext i32 %40 to i64
  %42 = getelementptr inbounds float, ptr %39, i64 %41
  %43 = load float, ptr %42, align 4, !tbaa !36
  store float %43, ptr %18, align 4, !tbaa !36
  call void @llvm.lifetime.start.p0(i64 4, ptr %19) #10
  %44 = load ptr, ptr %10, align 8, !tbaa !39
  %45 = load i32, ptr %11, align 4, !tbaa !4
  %46 = load i32, ptr %17, align 4, !tbaa !4
  %47 = sub nsw i32 %45, %46
  %48 = sub nsw i32 %47, 1
  %49 = sext i32 %48 to i64
  %50 = getelementptr inbounds float, ptr %44, i64 %49
  %51 = load float, ptr %50, align 4, !tbaa !36
  store float %51, ptr %19, align 4, !tbaa !36
  call void @llvm.lifetime.start.p0(i64 4, ptr %20) #10
  %52 = load ptr, ptr %13, align 8, !tbaa !39
  %53 = load i32, ptr %11, align 4, !tbaa !4
  %54 = load i32, ptr %17, align 4, !tbaa !4
  %55 = add nsw i32 %53, %54
  %56 = sext i32 %55 to i64
  %57 = getelementptr inbounds float, ptr %52, i64 %56
  %58 = load float, ptr %57, align 4, !tbaa !36
  store float %58, ptr %20, align 4, !tbaa !36
  %59 = load float, ptr %18, align 4, !tbaa !36
  %60 = load float, ptr %19, align 4, !tbaa !36
  %61 = fadd nsz float %59, %60
  %62 = fpext nsz float %61 to double
  %63 = fmul nsz double %62, 5.000000e-01
  %64 = fptrunc nsz double %63 to float
  store float %64, ptr %15, align 4, !tbaa !36
  %65 = load float, ptr %18, align 4, !tbaa !36
  %66 = load float, ptr %19, align 4, !tbaa !36
  %67 = fsub nsz float %65, %66
  %68 = load float, ptr %20, align 4, !tbaa !36
  %69 = fmul nsz float %67, %68
  store float %69, ptr %16, align 4, !tbaa !36
  %70 = load float, ptr %15, align 4, !tbaa !36
  %71 = load float, ptr %16, align 4, !tbaa !36
  %72 = fadd nsz float %70, %71
  %73 = load ptr, ptr %10, align 8, !tbaa !39
  %74 = load i32, ptr %17, align 4, !tbaa !4
  %75 = sext i32 %74 to i64
  %76 = getelementptr inbounds float, ptr %73, i64 %75
  store float %72, ptr %76, align 4, !tbaa !36
  %77 = load float, ptr %15, align 4, !tbaa !36
  %78 = load float, ptr %16, align 4, !tbaa !36
  %79 = fsub nsz float %77, %78
  %80 = load ptr, ptr %10, align 8, !tbaa !39
  %81 = load i32, ptr %11, align 4, !tbaa !4
  %82 = load i32, ptr %17, align 4, !tbaa !4
  %83 = sub nsw i32 %81, %82
  %84 = sub nsw i32 %83, 1
  %85 = sext i32 %84 to i64
  %86 = getelementptr inbounds float, ptr %80, i64 %85
  store float %79, ptr %86, align 4, !tbaa !36
  call void @llvm.lifetime.end.p0(i64 4, ptr %20) #10
  call void @llvm.lifetime.end.p0(i64 4, ptr %19) #10
  call void @llvm.lifetime.end.p0(i64 4, ptr %18) #10
  br label %87

87:                                               ; preds = %38
  %88 = load i32, ptr %17, align 4, !tbaa !4
  %89 = add nsw i32 %88, 1
  store i32 %89, ptr %17, align 4, !tbaa !4
  br label %33, !llvm.loop !160

90:                                               ; preds = %37
  %91 = load ptr, ptr %5, align 8, !tbaa !17
  %92 = getelementptr inbounds nuw %struct.AVTXContext, ptr %91, i32 0, i32 6
  %93 = getelementptr inbounds [4 x ptr], ptr %92, i64 0, i64 0
  %94 = load ptr, ptr %93, align 8, !tbaa !8
  %95 = load ptr, ptr %5, align 8, !tbaa !17
  %96 = getelementptr inbounds nuw %struct.AVTXContext, ptr %95, i32 0, i32 5
  %97 = load ptr, ptr %96, align 8, !tbaa !68
  %98 = getelementptr inbounds %struct.AVTXContext, ptr %97, i64 0
  %99 = load ptr, ptr %9, align 8, !tbaa !39
  %100 = load ptr, ptr %10, align 8, !tbaa !39
  call void %94(ptr noundef %98, ptr noundef %99, ptr noundef %100, i64 noundef 8)
  %101 = load ptr, ptr %9, align 8, !tbaa !39
  %102 = load i32, ptr %11, align 4, !tbaa !4
  %103 = sext i32 %102 to i64
  %104 = getelementptr inbounds float, ptr %101, i64 %103
  %105 = load float, ptr %104, align 4, !tbaa !36
  store float %105, ptr %14, align 4, !tbaa !36
  call void @llvm.lifetime.start.p0(i64 4, ptr %21) #10
  %106 = load i32, ptr %11, align 4, !tbaa !4
  %107 = sub nsw i32 %106, 2
  store i32 %107, ptr %21, align 4, !tbaa !4
  br label %108

108:                                              ; preds = %182, %90
  %109 = load i32, ptr %21, align 4, !tbaa !4
  %110 = icmp sgt i32 %109, 0
  br i1 %110, label %112, label %111

111:                                              ; preds = %108
  call void @llvm.lifetime.end.p0(i64 4, ptr %21) #10
  br label %185

112:                                              ; preds = %108
  call void @llvm.lifetime.start.p0(i64 4, ptr %22) #10
  br label %113

113:                                              ; preds = %112
  %114 = load ptr, ptr %13, align 8, !tbaa !39
  %115 = load i32, ptr %11, align 4, !tbaa !4
  %116 = load i32, ptr %21, align 4, !tbaa !4
  %117 = sub nsw i32 %115, %116
  %118 = sext i32 %117 to i64
  %119 = getelementptr inbounds float, ptr %114, i64 %118
  %120 = load float, ptr %119, align 4, !tbaa !36
  %121 = load ptr, ptr %9, align 8, !tbaa !39
  %122 = load i32, ptr %21, align 4, !tbaa !4
  %123 = add nsw i32 %122, 0
  %124 = sext i32 %123 to i64
  %125 = getelementptr inbounds float, ptr %121, i64 %124
  %126 = load float, ptr %125, align 4, !tbaa !36
  %127 = load ptr, ptr %13, align 8, !tbaa !39
  %128 = load i32, ptr %21, align 4, !tbaa !4
  %129 = sext i32 %128 to i64
  %130 = getelementptr inbounds float, ptr %127, i64 %129
  %131 = load float, ptr %130, align 4, !tbaa !36
  %132 = load ptr, ptr %9, align 8, !tbaa !39
  %133 = load i32, ptr %21, align 4, !tbaa !4
  %134 = add nsw i32 %133, 1
  %135 = sext i32 %134 to i64
  %136 = getelementptr inbounds float, ptr %132, i64 %135
  %137 = load float, ptr %136, align 4, !tbaa !36
  %138 = fmul nsz float %131, %137
  %139 = fneg nsz float %138
  %140 = call nsz float @llvm.fmuladd.f32(float %120, float %126, float %139)
  store float %140, ptr %22, align 4, !tbaa !36
  %141 = load ptr, ptr %13, align 8, !tbaa !39
  %142 = load i32, ptr %11, align 4, !tbaa !4
  %143 = load i32, ptr %21, align 4, !tbaa !4
  %144 = sub nsw i32 %142, %143
  %145 = sext i32 %144 to i64
  %146 = getelementptr inbounds float, ptr %141, i64 %145
  %147 = load float, ptr %146, align 4, !tbaa !36
  %148 = load ptr, ptr %9, align 8, !tbaa !39
  %149 = load i32, ptr %21, align 4, !tbaa !4
  %150 = add nsw i32 %149, 1
  %151 = sext i32 %150 to i64
  %152 = getelementptr inbounds float, ptr %148, i64 %151
  %153 = load float, ptr %152, align 4, !tbaa !36
  %154 = load ptr, ptr %13, align 8, !tbaa !39
  %155 = load i32, ptr %21, align 4, !tbaa !4
  %156 = sext i32 %155 to i64
  %157 = getelementptr inbounds float, ptr %154, i64 %156
  %158 = load float, ptr %157, align 4, !tbaa !36
  %159 = load ptr, ptr %9, align 8, !tbaa !39
  %160 = load i32, ptr %21, align 4, !tbaa !4
  %161 = add nsw i32 %160, 0
  %162 = sext i32 %161 to i64
  %163 = getelementptr inbounds float, ptr %159, i64 %162
  %164 = load float, ptr %163, align 4, !tbaa !36
  %165 = fmul nsz float %158, %164
  %166 = call nsz float @llvm.fmuladd.f32(float %147, float %153, float %165)
  %167 = load ptr, ptr %9, align 8, !tbaa !39
  %168 = load i32, ptr %21, align 4, !tbaa !4
  %169 = sext i32 %168 to i64
  %170 = getelementptr inbounds float, ptr %167, i64 %169
  store float %166, ptr %170, align 4, !tbaa !36
  br label %171

171:                                              ; preds = %113
  br label %172

172:                                              ; preds = %171
  %173 = load float, ptr %14, align 4, !tbaa !36
  %174 = load ptr, ptr %9, align 8, !tbaa !39
  %175 = load i32, ptr %21, align 4, !tbaa !4
  %176 = add nsw i32 %175, 1
  %177 = sext i32 %176 to i64
  %178 = getelementptr inbounds float, ptr %174, i64 %177
  store float %173, ptr %178, align 4, !tbaa !36
  %179 = load float, ptr %22, align 4, !tbaa !36
  %180 = load float, ptr %14, align 4, !tbaa !36
  %181 = fadd nsz float %180, %179
  store float %181, ptr %14, align 4, !tbaa !36
  call void @llvm.lifetime.end.p0(i64 4, ptr %22) #10
  br label %182

182:                                              ; preds = %172
  %183 = load i32, ptr %21, align 4, !tbaa !4
  %184 = sub nsw i32 %183, 2
  store i32 %184, ptr %21, align 4, !tbaa !4
  br label %108, !llvm.loop !161

185:                                              ; preds = %111
  %186 = load ptr, ptr %13, align 8, !tbaa !39
  %187 = getelementptr inbounds float, ptr %186, i64 0
  %188 = load float, ptr %187, align 4, !tbaa !36
  %189 = load ptr, ptr %9, align 8, !tbaa !39
  %190 = getelementptr inbounds float, ptr %189, i64 0
  %191 = load float, ptr %190, align 4, !tbaa !36
  %192 = fmul nsz float %188, %191
  %193 = load ptr, ptr %9, align 8, !tbaa !39
  %194 = getelementptr inbounds float, ptr %193, i64 0
  store float %192, ptr %194, align 4, !tbaa !36
  %195 = load float, ptr %14, align 4, !tbaa !36
  %196 = load ptr, ptr %9, align 8, !tbaa !39
  %197 = getelementptr inbounds float, ptr %196, i64 1
  store float %195, ptr %197, align 4, !tbaa !36
  call void @llvm.lifetime.end.p0(i64 4, ptr %16) #10
  call void @llvm.lifetime.end.p0(i64 4, ptr %15) #10
  call void @llvm.lifetime.end.p0(i64 4, ptr %14) #10
  call void @llvm.lifetime.end.p0(i64 8, ptr %13) #10
  call void @llvm.lifetime.end.p0(i64 4, ptr %12) #10
  call void @llvm.lifetime.end.p0(i64 4, ptr %11) #10
  call void @llvm.lifetime.end.p0(i64 8, ptr %10) #10
  call void @llvm.lifetime.end.p0(i64 8, ptr %9) #10
  ret void
}