; Function Attrs: nounwind uwtable
define internal void @ff_tx_dctII_float_c(ptr noundef readonly captures(none) %0, ptr noundef %1, ptr noundef %2, i64 %3) #3 {
  %5 = load i32, ptr %0, align 8, !tbaa !16
  %6 = ashr i32 %5, 1
  %7 = getelementptr inbounds nuw i8, ptr %0, i64 16
  %8 = load ptr, ptr %7, align 8, !tbaa !26
  %9 = icmp sgt i32 %6, 0
  br i1 %9, label %.lr.ph.preheader, label %.._crit_edge_crit_edge

.._crit_edge_crit_edge:                           ; preds = %4
  %.pre = sext i32 %5 to i64
  br label %._crit_edge

.lr.ph.preheader:                                 ; preds = %4
  %10 = zext nneg i32 %5 to i64
  %wide.trip.count = zext nneg i32 %6 to i64
  %invariant.gep = getelementptr float, ptr %8, i64 %10
  br label %.lr.ph

._crit_edge:                                      ; preds = %.lr.ph, %.._crit_edge_crit_edge
  %.pre-phi = phi i64 [ %.pre, %.._crit_edge_crit_edge ], [ %10, %.lr.ph ]
  %11 = getelementptr inbounds nuw i8, ptr %0, i64 40
  %12 = load ptr, ptr %11, align 8, !tbaa !4
  %13 = getelementptr inbounds nuw i8, ptr %0, i64 32
  %14 = load ptr, ptr %13, align 8, !tbaa !56
  tail call void %12(ptr noundef %14, ptr noundef %1, ptr noundef %2, i64 noundef 8) #16
  %15 = getelementptr inbounds float, ptr %1, i64 %.pre-phi
  %16 = load float, ptr %15, align 4, !tbaa !27
  %17 = icmp sgt i32 %5, 2
  br i1 %17, label %.lr.ph74, label %._crit_edge75

.lr.ph:                                           ; preds = %.lr.ph.preheader, %.lr.ph
  %indvars.iv = phi i64 [ 0, %.lr.ph.preheader ], [ %indvars.iv.next, %.lr.ph ]
  %18 = getelementptr inbounds nuw float, ptr %2, i64 %indvars.iv
  %19 = load float, ptr %18, align 4, !tbaa !27
  %20 = trunc i64 %indvars.iv to i32
  %21 = xor i32 %20, -1
  %22 = add i32 %5, %21
  %23 = sext i32 %22 to i64
  %24 = getelementptr inbounds float, ptr %2, i64 %23
  %25 = load float, ptr %24, align 4, !tbaa !27
  %gep = getelementptr float, ptr %invariant.gep, i64 %indvars.iv
  %26 = load float, ptr %gep, align 4, !tbaa !27
  %27 = fadd nsz float %19, %25
  %28 = fmul nsz float %27, 5.000000e-01
  %29 = fsub nsz float %19, %25
  %30 = fmul nsz float %29, %26
  %31 = fadd nsz float %28, %30
  store float %31, ptr %18, align 4, !tbaa !27
  %32 = fsub nsz float %28, %30
  store float %32, ptr %24, align 4, !tbaa !27
  %indvars.iv.next = add nuw nsw i64 %indvars.iv, 1
  %exitcond.not = icmp eq i64 %indvars.iv.next, %wide.trip.count
  br i1 %exitcond.not, label %._crit_edge, label %.lr.ph, !llvm.loop !149

._crit_edge75:                                    ; preds = %.lr.ph74, %._crit_edge
  %.0.lcssa = phi float [ %16, %._crit_edge ], [ %51, %.lr.ph74 ]
  %33 = load float, ptr %8, align 4, !tbaa !27
  %34 = load float, ptr %1, align 4, !tbaa !27
  %35 = fmul nsz float %33, %34
  store float %35, ptr %1, align 4, !tbaa !27
  %36 = getelementptr inbounds nuw i8, ptr %1, i64 4
  store float %.0.lcssa, ptr %36, align 4, !tbaa !27
  ret void

.lr.ph74:                                         ; preds = %._crit_edge, %.lr.ph74
  %indvars.iv77 = phi i64 [ %indvars.iv.next78, %.lr.ph74 ], [ %.pre-phi, %._crit_edge ]
  %.072 = phi float [ %51, %.lr.ph74 ], [ %16, %._crit_edge ]
  %indvars.iv.next78 = add nsw i64 %indvars.iv77, -2
  %37 = sub nsw i64 %.pre-phi, %indvars.iv.next78
  %38 = getelementptr inbounds float, ptr %8, i64 %37
  %39 = load float, ptr %38, align 4, !tbaa !27
  %40 = getelementptr inbounds nuw float, ptr %1, i64 %indvars.iv.next78
  %41 = load float, ptr %40, align 4, !tbaa !27
  %42 = getelementptr inbounds nuw float, ptr %8, i64 %indvars.iv.next78
  %43 = load float, ptr %42, align 4, !tbaa !27
  %44 = getelementptr inbounds nuw i8, ptr %40, i64 4
  %45 = load float, ptr %44, align 4, !tbaa !27
  %46 = fneg nsz float %45
  %47 = fmul nsz float %43, %46
  %48 = tail call nsz float @llvm.fmuladd.f32(float %39, float %41, float %47)
  %49 = fmul nsz float %41, %43
  %50 = tail call nsz float @llvm.fmuladd.f32(float %39, float %45, float %49)
  store float %50, ptr %40, align 4, !tbaa !27
  store float %.072, ptr %44, align 4, !tbaa !27
  %51 = fadd nsz float %.072, %48
  %52 = icmp sgt i64 %indvars.iv77, 4
  br i1 %52, label %.lr.ph74, label %._crit_edge75, !llvm.loop !150
}